target datalayout = "e-m:e-p270:32:32-p271:32:32-p272:64:64-i64:64-i128:128-f80:128-n8:16:32:64-S128"
target triple = "x86_64-pc-linux-gnu"

%struct.AVFilterContext = type { ptr, ptr, ptr, ptr, ptr, i32, ptr, ptr, i32, ptr, ptr, i32, i32, ptr, ptr, ptr, ptr, i32, ptr, i32, i32 }
%struct.DRMeterContext = type { ptr, ptr, i32, i64, double }
%struct.AVFilterLink = type { ptr, ptr, ptr, ptr, i32, i32, i32, i32, %struct.AVRational, i32, i32, i32, %struct.AVChannelLayout, %struct.AVRational, ptr, i32, %struct.AVFilterFormatsConfig, %struct.AVFilterFormatsConfig }
%struct.AVChannelLayout = type { i32, i32, %union.anon.1, ptr }
%union.anon.1 = type { i64 }
%struct.AVRational = type { i32, i32 }
%struct.AVFilterFormatsConfig = type { ptr, ptr, ptr, ptr, ptr }

; Function Attrs: nounwind uwtable
define internal i32 @config_output(ptr noundef %0) #1 {
  %2 = alloca i32, align 4
  %3 = alloca ptr, align 8
  %4 = alloca ptr, align 8
  %5 = alloca i32, align 4
  store ptr %0, ptr %3, align 8, !tbaa !29
  call void @llvm.lifetime.start.p0(i64 8, ptr %4) #6
  %6 = load ptr, ptr %3, align 8, !tbaa !29
  %7 = getelementptr inbounds nuw %struct.AVFilterLink, ptr %6, i32 0, i32 0
  %8 = load ptr, ptr %7, align 8, !tbaa !68
  %9 = getelementptr inbounds nuw %struct.AVFilterContext, ptr %8, i32 0, i32 9
  %10 = load ptr, ptr %9, align 8, !tbaa !9
  store ptr %10, ptr %4, align 8, !tbaa !22
  %11 = load ptr, ptr %3, align 8, !tbaa !29
  %12 = getelementptr inbounds nuw %struct.AVFilterLink, ptr %11, i32 0, i32 12
  %13 = getelementptr inbounds nuw %struct.AVChannelLayout, ptr %12, i32 0, i32 1
  %14 = load i32, ptr %13, align 4, !tbaa !69
  %15 = sext i32 %14 to i64
  %16 = call noalias ptr @av_calloc(i64 noundef %15, i64 noundef 262176)
  %17 = load ptr, ptr %4, align 8, !tbaa !22
  %18 = getelementptr inbounds nuw %struct.DRMeterContext, ptr %17, i32 0, i32 1
  store ptr %16, ptr %18, align 8, !tbaa !43
  %19 = load ptr, ptr %4, align 8, !tbaa !22
  %20 = getelementptr inbounds nuw %struct.DRMeterContext, ptr %19, i32 0, i32 1
  %21 = load ptr, ptr %20, align 8, !tbaa !43
  %22 = icmp ne ptr %21, null
  br i1 %22, label %24, label %23

23:                                               ; preds = %1
  store i32 -12, ptr %2, align 4
  store i32 1, ptr %5, align 4
  br label %42

24:                                               ; preds = %1
  %25 = load ptr, ptr %3, align 8, !tbaa !29
  %26 = getelementptr inbounds nuw %struct.AVFilterLink, ptr %25, i32 0, i32 12
  %27 = getelementptr inbounds nuw %struct.AVChannelLayout, ptr %26, i32 0, i32 1
  %28 = load i32, ptr %27, align 4, !tbaa !69
  %29 = load ptr, ptr %4, align 8, !tbaa !22
  %30 = getelementptr inbounds nuw %struct.DRMeterContext, ptr %29, i32 0, i32 2
  store i32 %28, ptr %30, align 8, !tbaa !24
  %31 = load ptr, ptr %4, align 8, !tbaa !22
  %32 = getelementptr inbounds nuw %struct.DRMeterContext, ptr %31, i32 0, i32 4
  %33 = load double, ptr %32, align 8, !tbaa !70
  %34 = load ptr, ptr %3, align 8, !tbaa !29
  %35 = getelementptr inbounds nuw %struct.AVFilterLink, ptr %34, i32 0, i32 11
  %36 = load i32, ptr %35, align 8, !tbaa !71
  %37 = sitofp i32 %36 to double
  %38 = fmul nsz double %33, %37
  %39 = call i64 @llvm.lrint.i64.f64(double %38)
  %40 = load ptr, ptr %4, align 8, !tbaa !22
  %41 = getelementptr inbounds nuw %struct.DRMeterContext, ptr %40, i32 0, i32 3
  store i64 %39, ptr %41, align 8, !tbaa !66
  store i32 0, ptr %2, align 4
  store i32 1, ptr %5, align 4
  br label %42

42:                                               ; preds = %24, %23
  call void @llvm.lifetime.end.p0(i64 8, ptr %4) #6
  %43 = load i32, ptr %2, align 4
  ret i32 %43
}