; Function Attrs: nounwind uwtable
define internal range(i32 -12, 1) i32 @config_output(ptr noundef readonly captures(none) %0) #1 {
  %2 = load ptr, ptr %0, align 8, !tbaa !64
  %3 = getelementptr inbounds nuw i8, ptr %2, i64 72
  %4 = load ptr, ptr %3, align 8, !tbaa !4
  %5 = getelementptr inbounds nuw i8, ptr %0, i64 76
  %6 = load i32, ptr %5, align 4, !tbaa !65
  %7 = sext i32 %6 to i64
  %8 = tail call noalias ptr @av_calloc(i64 noundef %7, i64 noundef 262176) #5
  %9 = getelementptr inbounds nuw i8, ptr %4, i64 8
  store ptr %8, ptr %9, align 8, !tbaa !25
  %.not = icmp eq ptr %8, null
  br i1 %.not, label %21, label %10

10:                                               ; preds = %1
  %11 = load i32, ptr %5, align 4, !tbaa !65
  %12 = getelementptr inbounds nuw i8, ptr %4, i64 16
  store i32 %11, ptr %12, align 8, !tbaa !20
  %13 = getelementptr inbounds nuw i8, ptr %4, i64 32
  %14 = load double, ptr %13, align 8, !tbaa !66
  %15 = getelementptr inbounds nuw i8, ptr %0, i64 64
  %16 = load i32, ptr %15, align 8, !tbaa !67
  %17 = sitofp i32 %16 to double
  %18 = fmul nsz double %14, %17
  %19 = tail call i64 @llvm.lrint.i64.f64(double %18)
  %20 = getelementptr inbounds nuw i8, ptr %4, i64 24
  store i64 %19, ptr %20, align 8, !tbaa !54
  br label %21

21:                                               ; preds = %1, %10
  %.0 = phi i32 [ 0, %10 ], [ -12, %1 ]
  ret i32 %.0
}